; Function Attrs: mustprogress nounwind uwtable
define void @_ZN6gmxapi11SessionImpl3runEv(ptr dead_on_unwind noalias nonnull writable sret(%"class.gmxapi::Status") align 8 %0, ptr noundef nonnull readonly align 8 captures(none) dereferenceable(160) %1) local_unnamed_addr #4 align 2 personality ptr @__gxx_personality_v0 {
  invoke void @_ZN6gmxapi6StatusC1Eb(ptr noundef nonnull align 8 dereferenceable(8) %0, i1 noundef zeroext false)
          to label %3 unwind label %12

3:                                                ; preds = %2
  %4 = getelementptr inbounds nuw i8, ptr %1, i64 64
  %5 = load ptr, ptr %4, align 8, !tbaa !54
  %6 = invoke noundef i32 @_ZN3gmx8Mdrunner8mdrunnerEv(ptr noundef nonnull align 8 dereferenceable(400) %5)
          to label %7 unwind label %12

7:                                                ; preds = %3
  %8 = icmp eq i32 %6, 0
  br i1 %8, label %9, label %11

9:                                                ; preds = %7
  %10 = invoke noundef nonnull align 8 dereferenceable(8) ptr @_ZN6gmxapi6StatusaSEb(ptr noundef nonnull align 8 dereferenceable(8) %0, i1 noundef zeroext true)
          to label %11 unwind label %12

11:                                               ; preds = %7, %9
  ret void

12:                                               ; preds = %9, %3, %2
  %13 = landingpad { ptr, i32 }
          catch ptr null
  %14 = extractvalue { ptr, i32 } %13, 0
  tail call void @__clang_call_terminate(ptr %14) #27
  unreachable
}